
out/am335x.elf:     file format elf32-littlearm


Disassembly of section .text:

82000000 <_start>:
82000000:	f10c00c0 	cpsid	if
82000004:	e59fd048 	ldr	sp, [pc, #72]	; 82000054 <_start+0x54>
82000008:	e59f0048 	ldr	r0, [pc, #72]	; 82000058 <_start+0x58>
8200000c:	eb000155 	bl	82000568 <puts>
82000010:	eb00001a 	bl	82000080 <vector_table_init>
82000014:	ee110f10 	mrc	15, 0, r0, cr1, cr0, {0}
82000018:	e3c00a01 	bic	r0, r0, #4096	; 0x1000
8200001c:	e3c00004 	bic	r0, r0, #4
82000020:	ee010f10 	mcr	15, 0, r0, cr1, cr0, {0}
82000024:	f1020011 	cps	#17
82000028:	e59fd02c 	ldr	sp, [pc, #44]	; 8200005c <_start+0x5c>
8200002c:	f1020012 	cps	#18
82000030:	e59fd028 	ldr	sp, [pc, #40]	; 82000060 <_start+0x60>
82000034:	f1020017 	cps	#23
82000038:	e59fd024 	ldr	sp, [pc, #36]	; 82000064 <_start+0x64>
8200003c:	f1020013 	cps	#19
82000040:	eb000084 	bl	82000258 <intc_init>
82000044:	eb0001bc 	bl	8200073c <main_setup>
82000048:	f10800c0 	cpsie	if
8200004c:	eb000100 	bl	82000454 <timer_init>
82000050:	eb00001a 	bl	820000c0 <activate_first_task>
82000054:	82012000 	andhi	r2, r1, #0
82000058:	82000840 	andhi	r0, r0, #64, 16	; 0x400000
8200005c:	82014000 	andhi	r4, r1, #0
82000060:	82016000 	andhi	r6, r1, #0
82000064:	82018000 	andhi	r8, r1, #0
	...

82000080 <vector_table_init>:
82000080:	ee110f10 	mrc	15, 0, r0, cr1, cr0, {0}
82000084:	e3c00a02 	bic	r0, r0, #8192	; 0x2000
82000088:	ee010f10 	mcr	15, 0, r0, cr1, cr0, {0}
8200008c:	e59f00dc 	ldr	r0, [pc, #220]	; 82000170 <data_abort+0xc>
82000090:	ee0c0f10 	mcr	15, 0, r0, cr12, cr0, {0}
82000094:	e12fff1e 	bx	lr
82000098:	e320f000 	nop	{0}
8200009c:	e320f000 	nop	{0}

820000a0 <vector_table>:
820000a0:	e59ff0cc 	ldr	pc, [pc, #204]	; 82000174 <data_abort+0x10>
820000a4:	e59ff0cc 	ldr	pc, [pc, #204]	; 82000178 <data_abort+0x14>
820000a8:	e59ff0cc 	ldr	pc, [pc, #204]	; 8200017c <data_abort+0x18>
820000ac:	e59ff0cc 	ldr	pc, [pc, #204]	; 82000180 <data_abort+0x1c>
820000b0:	e59ff0cc 	ldr	pc, [pc, #204]	; 82000184 <data_abort+0x20>
820000b4:	eafffffe 	b	820000b4 <vector_table+0x14>
820000b8:	e59ff0c8 	ldr	pc, [pc, #200]	; 82000188 <data_abort+0x24>
820000bc:	eafffffe 	b	820000bc <vector_table+0x1c>

820000c0 <activate_first_task>:
820000c0:	e59f00c4 	ldr	r0, [pc, #196]	; 8200018c <data_abort+0x28>
820000c4:	e5900000 	ldr	r0, [r0]
820000c8:	e8b00002 	ldm	r0!, {r1}
820000cc:	e129f001 	msr	CPSR_fc, r1
820000d0:	e8907fff 	ldm	r0, {r0, r1, r2, r3, r4, r5, r6, r7, r8, r9, sl, fp, ip, sp, lr}
820000d4:	e1b0f00e 	movs	pc, lr

820000d8 <swi_ex>:
820000d8:	e92d5ff0 	push	{r4, r5, r6, r7, r8, r9, sl, fp, ip, lr}
820000dc:	e14fc000 	mrs	ip, SPSR
820000e0:	e52dc004 	push	{ip}		; (str ip, [sp, #-4]!)
820000e4:	e59f80a4 	ldr	r8, [pc, #164]	; 82000190 <data_abort+0x2c>
820000e8:	e59fe0a4 	ldr	lr, [pc, #164]	; 82000194 <data_abort+0x30>
820000ec:	e798f100 	ldr	pc, [r8, r0, lsl #2]
820000f0:	e49dc004 	pop	{ip}		; (ldr ip, [sp], #4)
820000f4:	e129f00c 	msr	CPSR_fc, ip
820000f8:	e8bd5ff0 	pop	{r4, r5, r6, r7, r8, r9, sl, fp, ip, lr}
820000fc:	e1b0f00e 	movs	pc, lr

82000100 <irq_ex>:
82000100:	e92d0003 	push	{r0, r1}
82000104:	e59f0080 	ldr	r0, [pc, #128]	; 8200018c <data_abort+0x28>
82000108:	e5900000 	ldr	r0, [r0]
8200010c:	e14f1000 	mrs	r1, SPSR
82000110:	e8a00002 	stmia	r0!, {r1}
82000114:	e2800008 	add	r0, r0, #8
82000118:	e8c03ffc 	stmia	r0, {r2, r3, r4, r5, r6, r7, r8, r9, sl, fp, ip, sp}^
8200011c:	e2800030 	add	r0, r0, #48	; 0x30
82000120:	e8804000 	stm	r0, {lr}
82000124:	e2400038 	sub	r0, r0, #56	; 0x38
82000128:	e8bd0006 	pop	{r1, r2}
8200012c:	e8800006 	stm	r0, {r1, r2}
82000130:	eb000065 	bl	820002cc <intc_irq_handler>
82000134:	e59f0050 	ldr	r0, [pc, #80]	; 8200018c <data_abort+0x28>
82000138:	e5900000 	ldr	r0, [r0]
8200013c:	e8b00002 	ldm	r0!, {r1}
82000140:	e129f001 	msr	CPSR_fc, r1
82000144:	e8907fff 	ldm	r0, {r0, r1, r2, r3, r4, r5, r6, r7, r8, r9, sl, fp, ip, sp, lr}
82000148:	e1b0f00e 	movs	pc, lr

8200014c <undefined_instruction>:
8200014c:	e59f0044 	ldr	r0, [pc, #68]	; 82000198 <data_abort+0x34>
82000150:	eb000104 	bl	82000568 <puts>
82000154:	eafffffe 	b	82000154 <undefined_instruction+0x8>

82000158 <prefetch_abort>:
82000158:	e3a01000 	mov	r1, #0
8200015c:	eb000013 	bl	820001b0 <abort_handler>
82000160:	eafffffe 	b	82000160 <prefetch_abort+0x8>

82000164 <data_abort>:
82000164:	e3a01001 	mov	r1, #1
82000168:	eb000010 	bl	820001b0 <abort_handler>
8200016c:	eafffffe 	b	8200016c <data_abort+0x8>
82000170:	820000a0 	andhi	r0, r0, #160	; 0xa0
82000174:	82000000 	andhi	r0, r0, #0
82000178:	8200014c 	andhi	r0, r0, #76, 2
8200017c:	820000d8 	andhi	r0, r0, #216	; 0xd8
82000180:	82000158 	andhi	r0, r0, #88, 2
82000184:	82000164 	andhi	r0, r0, #100, 2
82000188:	82000100 	andhi	r0, r0, #0, 2
8200018c:	82002148 	andhi	r2, r0, #72, 2
82000190:	820009d4 	andhi	r0, r0, #212, 18	; 0x350000
82000194:	820000f0 	andhi	r0, r0, #240	; 0xf0
82000198:	8200084e 	andhi	r0, r0, #5111808	; 0x4e0000
8200019c:	e320f000 	nop	{0}

820001a0 <syscall>:
820001a0:	e52de004 	push	{lr}		; (str lr, [sp, #-4]!)
820001a4:	ef000000 	svc	0x00000000
820001a8:	e49de004 	pop	{lr}		; (ldr lr, [sp], #4)
820001ac:	e1a0f00e 	mov	pc, lr

820001b0 <abort_handler>:
820001b0:	e3000880 	movw	r0, #2176	; 0x880
820001b4:	e92d4010 	push	{r4, lr}
820001b8:	e3480200 	movt	r0, #33280	; 0x8200
820001bc:	e1a04001 	mov	r4, r1
820001c0:	eb0000f2 	bl	82000590 <kprintf>
820001c4:	e3540000 	cmp	r4, #0
820001c8:	1a000003 	bne	820001dc <abort_handler+0x2c>
820001cc:	e3000898 	movw	r0, #2200	; 0x898
820001d0:	e3480200 	movt	r0, #33280	; 0x8200
820001d4:	e8bd4010 	pop	{r4, lr}
820001d8:	ea0000ec 	b	82000590 <kprintf>
820001dc:	e3000890 	movw	r0, #2192	; 0x890
820001e0:	e3480200 	movt	r0, #33280	; 0x8200
820001e4:	e8bd4010 	pop	{r4, lr}
820001e8:	ea0000e8 	b	82000590 <kprintf>

820001ec <uart_putc>:
820001ec:	e350000a 	cmp	r0, #10
820001f0:	e92d4010 	push	{r4, lr}
820001f4:	e1a04000 	mov	r4, r0
820001f8:	0a000008 	beq	82000220 <uart_putc+0x34>
820001fc:	e3a01a09 	mov	r1, #36864	; 0x9000
82000200:	e34414e0 	movt	r1, #17632	; 0x44e0
82000204:	e5912014 	ldr	r2, [r1, #20]
82000208:	e3a03a09 	mov	r3, #36864	; 0x9000
8200020c:	e34434e0 	movt	r3, #17632	; 0x44e0
82000210:	e3120020 	tst	r2, #32
82000214:	0afffffa 	beq	82000204 <uart_putc+0x18>
82000218:	e5834000 	str	r4, [r3]
8200021c:	e8bd8010 	pop	{r4, pc}
82000220:	e3a0000d 	mov	r0, #13
82000224:	ebfffff0 	bl	820001ec <uart_putc>
82000228:	eafffff3 	b	820001fc <uart_putc+0x10>

8200022c <putc>:
8200022c:	eaffffee 	b	820001ec <uart_putc>

82000230 <getc>:
82000230:	e3a01a09 	mov	r1, #36864	; 0x9000
82000234:	e34414e0 	movt	r1, #17632	; 0x44e0
82000238:	e5912014 	ldr	r2, [r1, #20]
8200023c:	e3a03a09 	mov	r3, #36864	; 0x9000
82000240:	e34434e0 	movt	r3, #17632	; 0x44e0
82000244:	e3120001 	tst	r2, #1
82000248:	0afffffa 	beq	82000238 <getc+0x8>
8200024c:	e5930000 	ldr	r0, [r3]
82000250:	e6ef0070 	uxtb	r0, r0
82000254:	e12fff1e 	bx	lr

82000258 <intc_init>:
82000258:	e92d4010 	push	{r4, lr}
8200025c:	e3a04000 	mov	r4, #0
82000260:	e3444820 	movt	r4, #18464	; 0x4820
82000264:	e30008a4 	movw	r0, #2212	; 0x8a4
82000268:	e3a03001 	mov	r3, #1
8200026c:	e3480200 	movt	r0, #33280	; 0x8200
82000270:	e5843010 	str	r3, [r4, #16]
82000274:	eb0000c5 	bl	82000590 <kprintf>
82000278:	e3a03c01 	mov	r3, #256	; 0x100
8200027c:	e3a02c03 	mov	r2, #768	; 0x300
82000280:	e3443820 	movt	r3, #18464	; 0x4820
82000284:	e3442820 	movt	r2, #18464	; 0x4820
82000288:	e3a010fc 	mov	r1, #252	; 0xfc
8200028c:	e3e00000 	mvn	r0, #0
82000290:	e5840084 	str	r0, [r4, #132]	; 0x84
82000294:	e58400a4 	str	r0, [r4, #164]	; 0xa4
82000298:	e58400c4 	str	r0, [r4, #196]	; 0xc4
8200029c:	e58400e4 	str	r0, [r4, #228]	; 0xe4
820002a0:	e4831004 	str	r1, [r3], #4
820002a4:	e1530002 	cmp	r3, r2
820002a8:	1afffffc 	bne	820002a0 <intc_init+0x48>
820002ac:	e30008b8 	movw	r0, #2232	; 0x8b8
820002b0:	e3480200 	movt	r0, #33280	; 0x8200
820002b4:	eb0000b5 	bl	82000590 <kprintf>
820002b8:	e3a03000 	mov	r3, #0
820002bc:	e3443820 	movt	r3, #18464	; 0x4820
820002c0:	e3a02001 	mov	r2, #1
820002c4:	e5832048 	str	r2, [r3, #72]	; 0x48
820002c8:	e8bd8010 	pop	{r4, pc}

820002cc <intc_irq_handler>:
820002cc:	e3a03000 	mov	r3, #0
820002d0:	e30008cc 	movw	r0, #2252	; 0x8cc
820002d4:	e3443820 	movt	r3, #18464	; 0x4820
820002d8:	e3480200 	movt	r0, #33280	; 0x8200
820002dc:	e92d4010 	push	{r4, lr}
820002e0:	e5934040 	ldr	r4, [r3, #64]	; 0x40
820002e4:	e1a01004 	mov	r1, r4
820002e8:	eb0000a8 	bl	82000590 <kprintf>
820002ec:	e30039e8 	movw	r3, #2536	; 0x9e8
820002f0:	e3483200 	movt	r3, #33280	; 0x8200
820002f4:	e7933104 	ldr	r3, [r3, r4, lsl #2]
820002f8:	e3530000 	cmp	r3, #0
820002fc:	0a000001 	beq	82000308 <intc_irq_handler+0x3c>
82000300:	e1a00004 	mov	r0, r4
82000304:	e12fff33 	blx	r3
82000308:	e3a03000 	mov	r3, #0
8200030c:	e3a02001 	mov	r2, #1
82000310:	e3443820 	movt	r3, #18464	; 0x4820
82000314:	e5832048 	str	r2, [r3, #72]	; 0x48
82000318:	e8bd8010 	pop	{r4, pc}

8200031c <intc_add_handler>:
8200031c:	e92d4070 	push	{r4, r5, r6, lr}
82000320:	e1a04000 	mov	r4, r0
82000324:	e30008d8 	movw	r0, #2264	; 0x8d8
82000328:	e1a05001 	mov	r5, r1
8200032c:	e3480200 	movt	r0, #33280	; 0x8200
82000330:	eb000096 	bl	82000590 <kprintf>
82000334:	e30039e8 	movw	r3, #2536	; 0x9e8
82000338:	e30008ec 	movw	r0, #2284	; 0x8ec
8200033c:	e3483200 	movt	r3, #33280	; 0x8200
82000340:	e3480200 	movt	r0, #33280	; 0x8200
82000344:	e7835104 	str	r5, [r3, r4, lsl #2]
82000348:	eb000090 	bl	82000590 <kprintf>
8200034c:	e3c4201f 	bic	r2, r4, #31
82000350:	e3a03080 	mov	r3, #128	; 0x80
82000354:	e204401f 	and	r4, r4, #31
82000358:	e3443820 	movt	r3, #18464	; 0x4820
8200035c:	e0823003 	add	r3, r2, r3
82000360:	e30008fc 	movw	r0, #2300	; 0x8fc
82000364:	e3a02001 	mov	r2, #1
82000368:	e1a04412 	lsl	r4, r2, r4
8200036c:	e3480200 	movt	r0, #33280	; 0x8200
82000370:	e5834008 	str	r4, [r3, #8]
82000374:	e8bd4070 	pop	{r4, r5, r6, lr}
82000378:	ea000084 	b	82000590 <kprintf>

8200037c <machine_tasks_next>:
8200037c:	e3000914 	movw	r0, #2324	; 0x914
82000380:	e3480200 	movt	r0, #33280	; 0x8200
82000384:	e92d4010 	push	{r4, lr}
82000388:	eb000080 	bl	82000590 <kprintf>
8200038c:	e3002be8 	movw	r2, #3048	; 0xbe8
82000390:	e3482200 	movt	r2, #33280	; 0x8200
82000394:	e3000444 	movw	r0, #1092	; 0x444
82000398:	e5923000 	ldr	r3, [r2]
8200039c:	e5921004 	ldr	r1, [r2, #4]
820003a0:	e2833001 	add	r3, r3, #1
820003a4:	e5823000 	str	r3, [r2]
820003a8:	e1530001 	cmp	r3, r1
820003ac:	e59f1018 	ldr	r1, [pc, #24]	; 820003cc <machine_tasks_next+0x50>
820003b0:	23a03000 	movcs	r3, #0
820003b4:	25823000 	strcs	r3, [r2]
820003b8:	e0231390 	mla	r3, r0, r3, r1
820003bc:	e3022148 	movw	r2, #8520	; 0x2148
820003c0:	e3482200 	movt	r2, #33280	; 0x8200
820003c4:	e5823000 	str	r3, [r2]
820003c8:	e8bd8010 	pop	{r4, pc}
820003cc:	82000bf0 	andhi	r0, r0, #240, 22	; 0x3c000

820003d0 <machine_tasks_init>:
820003d0:	e3003be8 	movw	r3, #3048	; 0xbe8
820003d4:	e3a02000 	mov	r2, #0
820003d8:	e3483200 	movt	r3, #33280	; 0x8200
820003dc:	e5832004 	str	r2, [r3, #4]
820003e0:	e5832000 	str	r2, [r3]
820003e4:	eaffffe4 	b	8200037c <machine_tasks_next>

820003e8 <machine_tasks_add>:
820003e8:	e3003be8 	movw	r3, #3048	; 0xbe8
820003ec:	e3002444 	movw	r2, #1092	; 0x444
820003f0:	e3483200 	movt	r3, #33280	; 0x8200
820003f4:	e593c004 	ldr	ip, [r3, #4]
820003f8:	e92d4010 	push	{r4, lr}
820003fc:	e28c4001 	add	r4, ip, #1
82000400:	e00c0c92 	mul	ip, r2, ip
82000404:	e5834004 	str	r4, [r3, #4]
82000408:	e3a0e010 	mov	lr, #16
8200040c:	e083200c 	add	r2, r3, ip
82000410:	e1a03002 	mov	r3, r2
82000414:	e2822d11 	add	r2, r2, #1088	; 0x440
82000418:	e2822004 	add	r2, r2, #4
8200041c:	e5831448 	str	r1, [r3, #1096]	; 0x448
82000420:	e5832040 	str	r2, [r3, #64]	; 0x40
82000424:	e5830044 	str	r0, [r3, #68]	; 0x44
82000428:	e583e008 	str	lr, [r3, #8]
8200042c:	e8bd8010 	pop	{r4, pc}

82000430 <systick_handler>:
82000430:	e92d4010 	push	{r4, lr}
82000434:	e3a04000 	mov	r4, #0
82000438:	e1a03004 	mov	r3, r4
8200043c:	e3444804 	movt	r4, #18436	; 0x4804
82000440:	e584303c 	str	r3, [r4, #60]	; 0x3c
82000444:	ebffffcc 	bl	8200037c <machine_tasks_next>
82000448:	e5943028 	ldr	r3, [r4, #40]	; 0x28
8200044c:	e5843028 	str	r3, [r4, #40]	; 0x28
82000450:	e8bd8010 	pop	{r4, pc}

82000454 <timer_init>:
82000454:	e92d4010 	push	{r4, lr}
82000458:	e3a04000 	mov	r4, #0
8200045c:	e3444804 	movt	r4, #18436	; 0x4804
82000460:	e3001430 	movw	r1, #1072	; 0x430
82000464:	e3a03000 	mov	r3, #0
82000468:	e3a02001 	mov	r2, #1
8200046c:	e5843038 	str	r3, [r4, #56]	; 0x38
82000470:	e3481200 	movt	r1, #33280	; 0x8200
82000474:	e584303c 	str	r3, [r4, #60]	; 0x3c
82000478:	e3a00044 	mov	r0, #68	; 0x44
8200047c:	e584202c 	str	r2, [r4, #44]	; 0x2c
82000480:	ebffffa5 	bl	8200031c <intc_add_handler>
82000484:	e3043b40 	movw	r3, #19264	; 0x4b40
82000488:	e3000928 	movw	r0, #2344	; 0x928
8200048c:	e340304c 	movt	r3, #76	; 0x4c
82000490:	e3480200 	movt	r0, #33280	; 0x8200
82000494:	e584304c 	str	r3, [r4, #76]	; 0x4c
82000498:	eb00003c 	bl	82000590 <kprintf>
8200049c:	e3a03041 	mov	r3, #65	; 0x41
820004a0:	e5843038 	str	r3, [r4, #56]	; 0x38
820004a4:	e8bd8010 	pop	{r4, pc}

820004a8 <print_int>:
820004a8:	e92d40f0 	push	{r4, r5, r6, r7, lr}
820004ac:	e24dd00c 	sub	sp, sp, #12
820004b0:	e30ccccd 	movw	ip, #52429	; 0xcccd
820004b4:	e3a02001 	mov	r2, #1
820004b8:	e1a0400d 	mov	r4, sp
820004bc:	e1a0e00d 	mov	lr, sp
820004c0:	e34ccccc 	movt	ip, #52428	; 0xcccc
820004c4:	e351000a 	cmp	r1, #10
820004c8:	0a000019 	beq	82000534 <print_int+0x8c>
820004cc:	e3510010 	cmp	r1, #16
820004d0:	0a000021 	beq	8200055c <print_int+0xb4>
820004d4:	e1510000 	cmp	r1, r0
820004d8:	e1a03000 	mov	r3, r0
820004dc:	e3a00000 	mov	r0, #0
820004e0:	8a000003 	bhi	820004f4 <print_int+0x4c>
820004e4:	e0613003 	rsb	r3, r1, r3
820004e8:	e2800001 	add	r0, r0, #1
820004ec:	e1510003 	cmp	r1, r3
820004f0:	9afffffb 	bls	820004e4 <print_int+0x3c>
820004f4:	e3530009 	cmp	r3, #9
820004f8:	9a000013 	bls	8200054c <print_int+0xa4>
820004fc:	e1a05002 	mov	r5, r2
82000500:	e2833057 	add	r3, r3, #87	; 0x57
82000504:	e5ce3000 	strb	r3, [lr]
82000508:	e3500000 	cmp	r0, #0
8200050c:	e2822001 	add	r2, r2, #1
82000510:	e28ee001 	add	lr, lr, #1
82000514:	1affffea 	bne	820004c4 <print_int+0x1c>
82000518:	e0845005 	add	r5, r4, r5
8200051c:	e5750001 	ldrb	r0, [r5, #-1]!
82000520:	ebffff41 	bl	8200022c <putc>
82000524:	e1550004 	cmp	r5, r4
82000528:	1afffffb 	bne	8200051c <print_int+0x74>
8200052c:	e28dd00c 	add	sp, sp, #12
82000530:	e8bd80f0 	pop	{r4, r5, r6, r7, pc}
82000534:	e0876c90 	umull	r6, r7, r0, ip
82000538:	e1a051a7 	lsr	r5, r7, #3
8200053c:	e1a03185 	lsl	r3, r5, #3
82000540:	e0833085 	add	r3, r3, r5, lsl #1
82000544:	e0633000 	rsb	r3, r3, r0
82000548:	e1a00005 	mov	r0, r5
8200054c:	e2833030 	add	r3, r3, #48	; 0x30
82000550:	e1a05002 	mov	r5, r2
82000554:	e5ce3000 	strb	r3, [lr]
82000558:	eaffffea 	b	82000508 <print_int+0x60>
8200055c:	e200300f 	and	r3, r0, #15
82000560:	e1a00220 	lsr	r0, r0, #4
82000564:	eaffffe2 	b	820004f4 <print_int+0x4c>

82000568 <puts>:
82000568:	e92d4010 	push	{r4, lr}
8200056c:	e1a04000 	mov	r4, r0
82000570:	e5d00000 	ldrb	r0, [r0]
82000574:	e3500000 	cmp	r0, #0
82000578:	08bd8010 	popeq	{r4, pc}
8200057c:	ebffff2a 	bl	8200022c <putc>
82000580:	e5f40001 	ldrb	r0, [r4, #1]!
82000584:	e3500000 	cmp	r0, #0
82000588:	1afffffb 	bne	8200057c <puts+0x14>
8200058c:	e8bd8010 	pop	{r4, pc}

82000590 <kprintf>:
82000590:	e92d000f 	push	{r0, r1, r2, r3}
82000594:	e92d4030 	push	{r4, r5, lr}
82000598:	e24dd00c 	sub	sp, sp, #12
8200059c:	e28d301c 	add	r3, sp, #28
820005a0:	e59d4018 	ldr	r4, [sp, #24]
820005a4:	e58d3004 	str	r3, [sp, #4]
820005a8:	e5d40000 	ldrb	r0, [r4]
820005ac:	e3500000 	cmp	r0, #0
820005b0:	0a000006 	beq	820005d0 <kprintf+0x40>
820005b4:	e3500025 	cmp	r0, #37	; 0x25
820005b8:	0a000008 	beq	820005e0 <kprintf+0x50>
820005bc:	e2844001 	add	r4, r4, #1
820005c0:	ebffff19 	bl	8200022c <putc>
820005c4:	e5d40000 	ldrb	r0, [r4]
820005c8:	e3500000 	cmp	r0, #0
820005cc:	1afffff8 	bne	820005b4 <kprintf+0x24>
820005d0:	e28dd00c 	add	sp, sp, #12
820005d4:	e8bd4030 	pop	{r4, r5, lr}
820005d8:	e28dd010 	add	sp, sp, #16
820005dc:	e12fff1e 	bx	lr
820005e0:	e5d40001 	ldrb	r0, [r4, #1]
820005e4:	e3500068 	cmp	r0, #104	; 0x68
820005e8:	0a000012 	beq	82000638 <kprintf+0xa8>
820005ec:	9a000007 	bls	82000610 <kprintf+0x80>
820005f0:	e3500073 	cmp	r0, #115	; 0x73
820005f4:	0a000027 	beq	82000698 <kprintf+0x108>
820005f8:	e3500075 	cmp	r0, #117	; 0x75
820005fc:	0a00001e 	beq	8200067c <kprintf+0xec>
82000600:	e3500069 	cmp	r0, #105	; 0x69
82000604:	0a000012 	beq	82000654 <kprintf+0xc4>
82000608:	e2844002 	add	r4, r4, #2
8200060c:	eaffffe5 	b	820005a8 <kprintf+0x18>
82000610:	e3500025 	cmp	r0, #37	; 0x25
82000614:	0a000005 	beq	82000630 <kprintf+0xa0>
82000618:	e3500063 	cmp	r0, #99	; 0x63
8200061c:	1afffff9 	bne	82000608 <kprintf+0x78>
82000620:	e59d3004 	ldr	r3, [sp, #4]
82000624:	e2832004 	add	r2, r3, #4
82000628:	e58d2004 	str	r2, [sp, #4]
8200062c:	e5d30000 	ldrb	r0, [r3]
82000630:	ebfffefd 	bl	8200022c <putc>
82000634:	eafffff3 	b	82000608 <kprintf+0x78>
82000638:	e59d3004 	ldr	r3, [sp, #4]
8200063c:	e3a01010 	mov	r1, #16
82000640:	e2832004 	add	r2, r3, #4
82000644:	e58d2004 	str	r2, [sp, #4]
82000648:	e5930000 	ldr	r0, [r3]
8200064c:	ebffff95 	bl	820004a8 <print_int>
82000650:	eaffffec 	b	82000608 <kprintf+0x78>
82000654:	e59d3004 	ldr	r3, [sp, #4]
82000658:	e2832004 	add	r2, r3, #4
8200065c:	e58d2004 	str	r2, [sp, #4]
82000660:	e5935000 	ldr	r5, [r3]
82000664:	e3550000 	cmp	r5, #0
82000668:	ba000016 	blt	820006c8 <kprintf+0x138>
8200066c:	e1a00005 	mov	r0, r5
82000670:	e3a0100a 	mov	r1, #10
82000674:	ebffff8b 	bl	820004a8 <print_int>
82000678:	eaffffe2 	b	82000608 <kprintf+0x78>
8200067c:	e59d3004 	ldr	r3, [sp, #4]
82000680:	e3a0100a 	mov	r1, #10
82000684:	e2832004 	add	r2, r3, #4
82000688:	e58d2004 	str	r2, [sp, #4]
8200068c:	e5930000 	ldr	r0, [r3]
82000690:	ebffff84 	bl	820004a8 <print_int>
82000694:	eaffffdb 	b	82000608 <kprintf+0x78>
82000698:	e59d3004 	ldr	r3, [sp, #4]
8200069c:	e2832004 	add	r2, r3, #4
820006a0:	e58d2004 	str	r2, [sp, #4]
820006a4:	e5935000 	ldr	r5, [r3]
820006a8:	e5d50000 	ldrb	r0, [r5]
820006ac:	e3500000 	cmp	r0, #0
820006b0:	0affffd4 	beq	82000608 <kprintf+0x78>
820006b4:	ebfffedc 	bl	8200022c <putc>
820006b8:	e5f50001 	ldrb	r0, [r5, #1]!
820006bc:	e3500000 	cmp	r0, #0
820006c0:	1afffffb 	bne	820006b4 <kprintf+0x124>
820006c4:	eaffffcf 	b	82000608 <kprintf+0x78>
820006c8:	e3a0002d 	mov	r0, #45	; 0x2d
820006cc:	e2655000 	rsb	r5, r5, #0
820006d0:	ebfffed5 	bl	8200022c <putc>
820006d4:	eaffffe4 	b	8200066c <kprintf+0xdc>

820006d8 <task2_func>:
820006d8:	e3000938 	movw	r0, #2360	; 0x938
820006dc:	e92d4010 	push	{r4, lr}
820006e0:	e3480200 	movt	r0, #33280	; 0x8200
820006e4:	ebffffa9 	bl	82000590 <kprintf>
820006e8:	e3a01000 	mov	r1, #0
820006ec:	e2814001 	add	r4, r1, #1
820006f0:	e3000948 	movw	r0, #2376	; 0x948
820006f4:	e3480200 	movt	r0, #33280	; 0x8200
820006f8:	ebffffa4 	bl	82000590 <kprintf>
820006fc:	e1a01004 	mov	r1, r4
82000700:	eafffff9 	b	820006ec <task2_func+0x14>

82000704 <task1_func>:
82000704:	e3000954 	movw	r0, #2388	; 0x954
82000708:	e92d4010 	push	{r4, lr}
8200070c:	e3480200 	movt	r0, #33280	; 0x8200
82000710:	ebffff9e 	bl	82000590 <kprintf>
82000714:	e3a01000 	mov	r1, #0
82000718:	e3a03ffa 	mov	r3, #1000	; 0x3e8
8200071c:	e2533001 	subs	r3, r3, #1
82000720:	1afffffd 	bne	8200071c <task1_func+0x18>
82000724:	e2814001 	add	r4, r1, #1
82000728:	e3000964 	movw	r0, #2404	; 0x964
8200072c:	e3480200 	movt	r0, #33280	; 0x8200
82000730:	ebffff96 	bl	82000590 <kprintf>
82000734:	e1a01004 	mov	r1, r4
82000738:	eafffff6 	b	82000718 <task1_func+0x14>

8200073c <main_setup>:
8200073c:	e3000974 	movw	r0, #2420	; 0x974
82000740:	e92d4010 	push	{r4, lr}
82000744:	e3480200 	movt	r0, #33280	; 0x8200
82000748:	ebffff90 	bl	82000590 <kprintf>
8200074c:	eb000034 	bl	82000824 <tasks_init>
82000750:	e3000980 	movw	r0, #2432	; 0x980
82000754:	e3480200 	movt	r0, #33280	; 0x8200
82000758:	ebffff8c 	bl	82000590 <kprintf>
8200075c:	e3000704 	movw	r0, #1796	; 0x704
82000760:	e3480200 	movt	r0, #33280	; 0x8200
82000764:	eb000017 	bl	820007c8 <add_task>
82000768:	e30006d8 	movw	r0, #1752	; 0x6d8
8200076c:	e3480200 	movt	r0, #33280	; 0x8200
82000770:	eb000014 	bl	820007c8 <add_task>
82000774:	e3000990 	movw	r0, #2448	; 0x990
82000778:	e3480200 	movt	r0, #33280	; 0x8200
8200077c:	e8bd4010 	pop	{r4, lr}
82000780:	eaffff82 	b	82000590 <kprintf>

82000784 <task_fork>:
82000784:	e30009a4 	movw	r0, #2468	; 0x9a4
82000788:	e92d4010 	push	{r4, lr}
8200078c:	e3480200 	movt	r0, #33280	; 0x8200
82000790:	ebffff7e 	bl	82000590 <kprintf>
82000794:	e3a00000 	mov	r0, #0
82000798:	e8bd8010 	pop	{r4, pc}

8200079c <task_sleep>:
8200079c:	e30009ac 	movw	r0, #2476	; 0x9ac
820007a0:	e3480200 	movt	r0, #33280	; 0x8200
820007a4:	eaffff79 	b	82000590 <kprintf>

820007a8 <task_exit>:
820007a8:	e30009b4 	movw	r0, #2484	; 0x9b4
820007ac:	e3480200 	movt	r0, #33280	; 0x8200
820007b0:	eaffff76 	b	82000590 <kprintf>

820007b4 <task_getc>:
820007b4:	e92d4010 	push	{r4, lr}
820007b8:	ebfffe9c 	bl	82000230 <getc>
820007bc:	e8bd8010 	pop	{r4, pc}

820007c0 <task_putc>:
820007c0:	e6ef0070 	uxtb	r0, r0
820007c4:	eafffe98 	b	8200022c <putc>

820007c8 <add_task>:
820007c8:	e92d4070 	push	{r4, r5, r6, lr}
820007cc:	e3024144 	movw	r4, #8516	; 0x2144
820007d0:	e3484200 	movt	r4, #33280	; 0x8200
820007d4:	e1a05000 	mov	r5, r0
820007d8:	e30009bc 	movw	r0, #2492	; 0x9bc
820007dc:	e5941000 	ldr	r1, [r4]
820007e0:	e3480200 	movt	r0, #33280	; 0x8200
820007e4:	ebffff69 	bl	82000590 <kprintf>
820007e8:	e5942000 	ldr	r2, [r4]
820007ec:	e302314c 	movw	r3, #8524	; 0x214c
820007f0:	e30019cc 	movw	r1, #2508	; 0x9cc
820007f4:	e3483200 	movt	r3, #33280	; 0x8200
820007f8:	e3481200 	movt	r1, #33280	; 0x8200
820007fc:	e083c182 	add	ip, r3, r2, lsl #3
82000800:	e7831182 	str	r1, [r3, r2, lsl #3]
82000804:	e1a00005 	mov	r0, r5
82000808:	e1a0100c 	mov	r1, ip
8200080c:	e58c2004 	str	r2, [ip, #4]
82000810:	ebfffef4 	bl	820003e8 <machine_tasks_add>
82000814:	e5943000 	ldr	r3, [r4]
82000818:	e2833001 	add	r3, r3, #1
8200081c:	e5843000 	str	r3, [r4]
82000820:	e8bd8070 	pop	{r4, r5, r6, pc}

82000824 <tasks_init>:
82000824:	e92d4010 	push	{r4, lr}
82000828:	ebfffee8 	bl	820003d0 <machine_tasks_init>
8200082c:	e3023144 	movw	r3, #8516	; 0x2144
82000830:	e3483200 	movt	r3, #33280	; 0x8200
82000834:	e3a02000 	mov	r2, #0
82000838:	e5832000 	str	r2, [r3]
8200083c:	e8bd8010 	pop	{r4, pc}

82000840 <boot_msg>:
82000840:	6f6f420a 	svcvs	0x006f420a
82000844:	676e6974 			; <UNDEFINED> instruction: 0x676e6974
82000848:	0a2e2e2e 	beq	82b8c108 <_abort_stack_top+0xb74108>
8200084c:	6e75000a 	cdpvs	0, 7, cr0, cr5, cr10, {0}

8200084e <inst_msg>:
8200084e:	65646e75 	strbvs	r6, [r4, #-3701]!	; 0xfffff18b
82000852:	656e6966 	strbvs	r6, [lr, #-2406]!	; 0xfffff69a
82000856:	6e692064 	cdpvs	0, 6, cr2, cr9, cr4, {3}
8200085a:	75727473 	ldrbvc	r7, [r2, #-1139]!	; 0xfffffb8d
8200085e:	6f697463 	svcvs	0x00697463
82000862:	68202e6e 	stmdavs	r0!, {r1, r2, r3, r5, r6, r9, sl, fp, sp}
82000866:	69676e61 	stmdbvs	r7!, {r0, r5, r6, r9, sl, fp, sp, lr}^
8200086a:	2e2e676e 	cdpcs	7, 2, cr6, cr14, cr14, {3}
8200086e:	61000a2e 	tstvs	r0, lr, lsr #20

82000871 <act_msg>:
82000871:	69746361 	ldmdbvs	r4!, {r0, r5, r6, r8, r9, sp, lr}^
82000875:	69746176 	ldmdbvs	r4!, {r1, r2, r4, r5, r6, r8, sp, lr}^
82000879:	000a676e 	andeq	r6, sl, lr, ror #14
8200087d:	61000000 	mrsvs	r0, (UNDEF: 0)
82000881:	74726f62 	ldrbtvc	r6, [r2], #-3938	; 0xfffff09e
82000885:	6e616820 	cdpvs	8, 6, cr6, cr1, cr0, {1}
82000889:	3a726564 	bcc	83c99e21 <_abort_stack_top+0x1c81e21>
8200088d:	64000020 	strvs	r0, [r0], #-32	; 0xffffffe0
82000891:	0a617461 	beq	8385da1d <_abort_stack_top+0x1845a1d>
82000895:	70000000 	andvc	r0, r0, r0
82000899:	65666572 	strbvs	r6, [r6, #-1394]!	; 0xfffffa8e
8200089d:	0a686374 	beq	83a19675 <_abort_stack_top+0x1a01675>
820008a1:	6d000000 	stcvs	0, cr0, [r0, #-0]
820008a5:	206b7361 	rsbcs	r7, fp, r1, ror #6
820008a9:	65746e69 	ldrbvs	r6, [r4, #-3689]!	; 0xfffff197
820008ad:	70757272 	rsbsvc	r7, r5, r2, ror r2
820008b1:	000a7374 	andeq	r7, sl, r4, ror r3
820008b5:	65000000 	strvs	r0, [r0, #-0]
820008b9:	6c62616e 	stfvse	f6, [r2], #-440	; 0xfffffe48
820008bd:	6e692065 	cdpvs	0, 6, cr2, cr9, cr5, {3}
820008c1:	72726574 	rsbsvc	r6, r2, #116, 10	; 0x1d000000
820008c5:	73747075 	cmnvc	r4, #117	; 0x75
820008c9:	6900000a 	stmdbvs	r0, {r1, r3}
820008cd:	3a207172 	bcc	8281ce9d <_abort_stack_top+0x804e9d>
820008d1:	0a692520 	beq	83a49d59 <_abort_stack_top+0x1a31d59>
820008d5:	69000000 	stmdbvs	r0, {}	; <UNPREDICTABLE>
820008d9:	2063746e 	rsbcs	r7, r3, lr, ror #8
820008dd:	20646461 	rsbcs	r6, r4, r1, ror #8
820008e1:	646e6168 	strbtvs	r6, [lr], #-360	; 0xfffffe98
820008e5:	0a72656c 	beq	83c99e9d <_abort_stack_top+0x1c81e9d>
820008e9:	69000000 	stmdbvs	r0, {}	; <UNPREDICTABLE>
820008ed:	2063746e 	rsbcs	r7, r3, lr, ror #8
820008f1:	616d6e75 	smcvs	55013	; 0xd6e5
820008f5:	000a6b73 	andeq	r6, sl, r3, ror fp
820008f9:	69000000 	stmdbvs	r0, {}	; <UNPREDICTABLE>
820008fd:	2063746e 	rsbcs	r7, r3, lr, ror #8
82000901:	646e6168 	strbtvs	r6, [lr], #-360	; 0xfffffe98
82000905:	2072656c 	rsbscs	r6, r2, ip, ror #10
82000909:	20746573 	rsbscs	r6, r4, r3, ror r5
8200090d:	000a7075 	andeq	r7, sl, r5, ror r0
82000911:	67000000 	strvs	r0, [r0, -r0]
82000915:	6f74206f 	svcvs	0x0074206f
82000919:	78656e20 	stmdavc	r5!, {r5, r9, sl, fp, sp, lr}^
8200091d:	61742074 	cmnvs	r4, r4, ror r0
82000921:	000a6b73 	andeq	r6, sl, r3, ror fp
82000925:	73000000 	movwvc	r0, #0
82000929:	74726174 	ldrbtvc	r6, [r2], #-372	; 0xfffffe8c
8200092d:	6d697420 	cfstrdvs	mvd7, [r9, #-128]!	; 0xffffff80
82000931:	000a7265 	andeq	r7, sl, r5, ror #4
82000935:	74000000 	strvc	r0, [r0], #-0
82000939:	326b7361 	rsbcc	r7, fp, #-2080374783	; 0x84000001
8200093d:	61747320 	cmnvs	r4, r0, lsr #6
82000941:	64657472 	strbtvs	r7, [r5], #-1138	; 0xfffffb8e
82000945:	7400000a 	strvc	r0, [r0], #-10
82000949:	326b7361 	rsbcc	r7, fp, #-2080374783	; 0x84000001
8200094d:	0a692520 	beq	83a49dd5 <_abort_stack_top+0x1a31dd5>
82000951:	74000000 	strvc	r0, [r0], #-0
82000955:	316b7361 	cmncc	fp, r1, ror #6
82000959:	61747320 	cmnvs	r4, r0, lsr #6
8200095d:	64657472 	strbtvs	r7, [r5], #-1138	; 0xfffffb8e
82000961:	7400000a 	strvc	r0, [r0], #-10
82000965:	206b7361 	rsbcs	r7, fp, r1, ror #6
82000969:	20692031 	rsbcs	r2, r9, r1, lsr r0
8200096d:	6925203d 	stmdbvs	r5!, {r0, r2, r3, r4, r5, sp}
82000971:	6900000a 	stmdbvs	r0, {r1, r3}
82000975:	616d206e 	cmnvs	sp, lr, rrx
82000979:	000a6e69 	andeq	r6, sl, r9, ror #28
8200097d:	61000000 	mrsvs	r0, (UNDEF: 0)
82000981:	6e696464 	cdpvs	4, 6, cr6, cr9, cr4, {3}
82000985:	61742067 	cmnvs	r4, r7, rrx
82000989:	0a736b73 	beq	83cdb75d <_abort_stack_top+0x1cc375d>
8200098d:	74000000 	strvc	r0, [r0], #-0
82000991:	736b7361 	cmnvc	fp, #-2080374783	; 0x84000001
82000995:	696e6920 	stmdbvs	lr!, {r5, r8, fp, sp, lr}^
82000999:	74616974 	strbtvc	r6, [r1], #-2420	; 0xfffff68c
8200099d:	000a6465 	andeq	r6, sl, r5, ror #8
820009a1:	66000000 	strvs	r0, [r0], -r0
820009a5:	3f6b726f 	svccc	0x006b726f
820009a9:	7300000a 	movwvc	r0, #10
820009ad:	7065656c 	rsbvc	r6, r5, ip, ror #10
820009b1:	6500000a 	strvs	r0, [r0, #-10]
820009b5:	0a746978 	beq	83d1af9d <_abort_stack_top+0x1d02f9d>
820009b9:	61000000 	mrsvs	r0, (UNDEF: 0)
820009bd:	74206464 	strtvc	r6, [r0], #-1124	; 0xfffffb9c
820009c1:	206b7361 	rsbcs	r7, fp, r1, ror #6
820009c5:	000a6925 	andeq	r6, sl, r5, lsr #18
820009c9:	74000000 	strvc	r0, [r0], #-0
820009cd:	00747365 	rsbseq	r7, r4, r5, ror #6
820009d1:	Address 0x00000000820009d1 is out of bounds.


Disassembly of section .data:

820009d4 <syscall_table>:
820009d4:	820007a8 	andhi	r0, r0, #168, 14	; 0x2a00000
820009d8:	8200079c 	andhi	r0, r0, #156, 14	; 0x2700000
820009dc:	820007c0 	andhi	r0, r0, #192, 14	; 0x3000000
820009e0:	820007b4 	andhi	r0, r0, #180, 14	; 0x2d00000
820009e4:	82000784 	andhi	r0, r0, #132, 14	; 0x2100000

Disassembly of section .bss:

820009e8 <_kernel_bss_start>:
	...

82000be8 <current_task>:
82000be8:	00000000 	andeq	r0, r0, r0

82000bec <task_count>:
82000bec:	00000000 	andeq	r0, r0, r0

82000bf0 <machine_tasks>:
	...

82002144 <task_count>:
82002144:	00000000 	andeq	r0, r0, r0

82002148 <current_task_ptr>:
82002148:	00000000 	andeq	r0, r0, r0

8200214c <task_queue>:
	...

Disassembly of section .ARM.attributes:

00000000 <.ARM.attributes>:
   0:	00003241 	andeq	r3, r0, r1, asr #4
   4:	61656100 	cmnvs	r5, r0, lsl #2
   8:	01006962 	tsteq	r0, r2, ror #18
   c:	00000028 	andeq	r0, r0, r8, lsr #32
  10:	726f4305 	rsbvc	r4, pc, #335544320	; 0x14000000
  14:	2d786574 	cfldr64cs	mvdx6, [r8, #-464]!	; 0xfffffe30
  18:	06003841 	streq	r3, [r0], -r1, asr #16
  1c:	0841070a 	stmdaeq	r1, {r1, r3, r8, r9, sl}^
  20:	12020901 	andne	r0, r2, #16384	; 0x4000
  24:	15011404 	strne	r1, [r1, #-1028]	; 0xfffffbfc
  28:	18031701 	stmdane	r3, {r0, r8, r9, sl, ip}
  2c:	22011a01 	andcs	r1, r1, #4096	; 0x1000
  30:	Address 0x0000000000000030 is out of bounds.


Disassembly of section .comment:

00000000 <.comment>:
   0:	3a434347 	bcc	10d0d24 <_ram_start-0x7ef2f2dc>
   4:	694c2820 	stmdbvs	ip, {r5, fp, sp}^
   8:	6f72616e 	svcvs	0x0072616e
   c:	43434720 	movtmi	r4, #14112	; 0x3720
  10:	392e3420 	stmdbcc	lr!, {r5, sl, ip, sp}
  14:	3130322d 	teqcc	r0, sp, lsr #4
  18:	33302e35 	teqcc	r0, #848	; 0x350
  1c:	2e342029 	cdpcs	0, 3, cr2, cr4, cr9, {1}
  20:	20332e39 	eorscs	r2, r3, r9, lsr lr
  24:	35313032 	ldrcc	r3, [r1, #-50]!	; 0xffffffce
  28:	31313330 	teqcc	r1, r0, lsr r3
  2c:	72702820 	rsbsvc	r2, r0, #32, 16	; 0x200000
  30:	6c657265 	sfmvs	f7, 2, [r5], #-404	; 0xfffffe6c
  34:	65736165 	ldrbvs	r6, [r3, #-357]!	; 0xfffffe9b
  38:	Address 0x0000000000000038 is out of bounds.

